target datalayout = "e-m:e-p270:32:32-p271:32:32-p272:64:64-i64:64-i128:128-f80:128-n8:16:32:64-S128"
target triple = "x86_64-pc-linux-gnu"

%struct.ntlmdata = type { i32, [8 x i8], i32, ptr }

@Curl_cfree = external global ptr, align 8

; Function Attrs: nounwind uwtable
define dso_local void @Curl_auth_cleanup_ntlm(ptr noundef %0) #0 {
  %2 = alloca ptr, align 8
  store ptr %0, ptr %2, align 8
  br label %3

3:                                                ; preds = %1
  %4 = load ptr, ptr @Curl_cfree, align 8
  %5 = load ptr, ptr %2, align 8
  %6 = getelementptr inbounds %struct.ntlmdata, ptr %5, i32 0, i32 3
  %7 = load ptr, ptr %6, align 8
  call void %4(ptr noundef %7)
  %8 = load ptr, ptr %2, align 8
  %9 = getelementptr inbounds %struct.ntlmdata, ptr %8, i32 0, i32 3
  store ptr null, ptr %9, align 8
  br label %10

10:                                               ; preds = %3
  %11 = load ptr, ptr %2, align 8
  %12 = getelementptr inbounds %struct.ntlmdata, ptr %11, i32 0, i32 2
  store i32 0, ptr %12, align 4
  ret void
}